target datalayout = "e-m:e-p270:32:32-p271:32:32-p272:64:64-i64:64-i128:128-f80:128-n8:16:32:64-S128"
target triple = "x86_64-pc-linux-gnu"

%"struct.std::atomic.61" = type { %"struct.std::__atomic_base.62" }
%"struct.std::__atomic_base.62" = type { i8 }
%"struct.std::atomic.34" = type { %"struct.std::__atomic_base.35" }
%"struct.std::__atomic_base.35" = type { i64 }
%"struct.tbb::detail::d1::intrusive_list_node" = type { ptr, ptr }
%"struct.std::atomic" = type { %"struct.std::__atomic_base" }
%"struct.std::__atomic_base" = type { i32 }
%"class.tbb::detail::r1::threading_control_client" = type { ptr, ptr }
%"struct.tbb::detail::r1::threading_control_impl::client_snapshot" = type { i64, i32, ptr, ptr }
%"class.tbb::detail::r1::thread_dispatcher_client" = type { %"struct.tbb::detail::d1::intrusive_list_node", ptr, i64 }
%"class.tbb::detail::r1::concurrent_monitor_mutex" = type { %"struct.std::atomic.59", %"struct.std::atomic.59" }
%"struct.std::atomic.59" = type { %"struct.std::__atomic_base.60" }
%"struct.std::__atomic_base.60" = type { i32 }
%"class.tbb::detail::r1::circular_doubly_linked_list_with_sentinel" = type { %"struct.std::atomic.34", %"struct.tbb::detail::r1::circular_doubly_linked_list_with_sentinel::base_node" }
%"struct.tbb::detail::r1::circular_doubly_linked_list_with_sentinel::base_node" = type { ptr, ptr }
%"struct.tbb::detail::r1::arena_base" = type { %"struct.tbb::detail::d0::padded.63", %"struct.std::atomic", %"struct.std::atomic", %"struct.std::atomic", [4 x i8], %"class.tbb::detail::r1::task_stream", %"class.tbb::detail::r1::task_stream", %"class.tbb::detail::r1::task_stream.65", i32, i32, %"struct.std::atomic.61", %"class.tbb::detail::r1::atomic_flag", %"class.tbb::detail::r1::observer_list", ptr, ptr, ptr, %"class.tbb::detail::r1::concurrent_monitor", %"class.tbb::detail::r1::arena_co_cache", %"class.tbb::detail::r1::atomic_flag", i32, i32, i32, i32, %"class.tbb::detail::r1::threading_control_client" }
%"struct.tbb::detail::d0::padded.63" = type { %"struct.tbb::detail::d0::padded_base.64" }
%"struct.tbb::detail::d0::padded_base.64" = type { %"struct.tbb::detail::d1::intrusive_list_node", [112 x i8] }
%"class.tbb::detail::r1::task_stream" = type <{ %"struct.std::atomic.34", ptr, i32, [4 x i8] }>
%"class.tbb::detail::r1::task_stream.65" = type <{ %"struct.std::atomic.34", ptr, i32, [4 x i8] }>
%"class.tbb::detail::r1::observer_list" = type { %"struct.std::atomic.68", %"struct.std::atomic.68", %"class.tbb::detail::d0::aligned_space", ptr }
%"struct.std::atomic.68" = type { %"struct.std::__atomic_base.69" }
%"struct.std::__atomic_base.69" = type { ptr }
%"class.tbb::detail::d0::aligned_space" = type { [8 x i8] }
%"class.tbb::detail::r1::concurrent_monitor" = type { %"class.tbb::detail::r1::concurrent_monitor_base.base", [4 x i8] }
%"class.tbb::detail::r1::concurrent_monitor_base.base" = type <{ %"class.tbb::detail::r1::concurrent_monitor_mutex", %"class.tbb::detail::r1::circular_doubly_linked_list_with_sentinel", %"struct.std::atomic" }>
%"class.tbb::detail::r1::arena_co_cache" = type <{ ptr, i32, i32, %"class.tbb::detail::d1::spin_mutex", [7 x i8] }>
%"class.tbb::detail::d1::spin_mutex" = type { %"struct.std::atomic.61" }
%"class.tbb::detail::r1::atomic_flag" = type { %"struct.std::atomic.34" }

; Function Attrs: mustprogress nounwind sspstrong uwtable
define linkonce_odr noundef i32 @_ZN3tbb6detail2r15arena14priority_levelEv(ptr noundef nonnull align 128 dereferenceable(768) %0) #3 comdat align 2 {
  %2 = alloca ptr, align 8
  store ptr %0, ptr %2, align 8, !tbaa !92
  %3 = load ptr, ptr %2, align 8
  %4 = getelementptr inbounds nuw %"struct.tbb::detail::r1::arena_base", ptr %3, i32 0, i32 9
  %5 = load i32, ptr %4, align 4, !tbaa !271
  ret i32 %5
}

; Function Attrs: mustprogress nounwind sspstrong uwtable
define linkonce_odr noundef ptr @_ZN3tbb6detail2r124threading_control_client13get_pm_clientEv(ptr noundef nonnull align 8 dereferenceable(16) %0) #3 comdat align 2 {
  %2 = alloca ptr, align 8
  store ptr %0, ptr %2, align 8, !tbaa !97
  %3 = load ptr, ptr %2, align 8
  %4 = getelementptr inbounds nuw %"class.tbb::detail::r1::threading_control_client", ptr %3, i32 0, i32 0
  %5 = load ptr, ptr %4, align 8, !tbaa !99
  ret ptr %5
}

; Function Attrs: mustprogress sspstrong uwtable
define linkonce_odr noundef i32 @_ZN3tbb6detail2r124thread_dispatcher_client14priority_levelEv(ptr noundef nonnull align 8 dereferenceable(32) %0) #0 comdat align 2 {
  %2 = alloca ptr, align 8
  store ptr %0, ptr %2, align 8, !tbaa !96
  %3 = load ptr, ptr %2, align 8
  %4 = getelementptr inbounds nuw %"class.tbb::detail::r1::thread_dispatcher_client", ptr %3, i32 0, i32 1
  %5 = load ptr, ptr %4, align 8, !tbaa !111
  %6 = call noundef i32 @_ZN3tbb6detail2r15arena14priority_levelEv(ptr noundef nonnull align 128 dereferenceable(768) %5)
  ret i32 %6
}

; Function Attrs: mustprogress nounwind sspstrong uwtable
define linkonce_odr noundef i64 @_ZN3tbb6detail2r124thread_dispatcher_client13get_aba_epochEv(ptr noundef nonnull align 8 dereferenceable(32) %0) #3 comdat align 2 {
  %2 = alloca ptr, align 8
  store ptr %0, ptr %2, align 8, !tbaa !96
  %3 = load ptr, ptr %2, align 8
  %4 = getelementptr inbounds nuw %"class.tbb::detail::r1::thread_dispatcher_client", ptr %3, i32 0, i32 2
  %5 = load i64, ptr %4, align 8, !tbaa !107
  ret i64 %5
}

; Function Attrs: mustprogress nounwind sspstrong uwtable
define linkonce_odr noundef ptr @_ZN3tbb6detail2r124threading_control_client28get_thread_dispatcher_clientEv(ptr noundef nonnull align 8 dereferenceable(16) %0) #3 comdat align 2 {
  %2 = alloca ptr, align 8
  store ptr %0, ptr %2, align 8, !tbaa !97
  %3 = load ptr, ptr %2, align 8
  %4 = getelementptr inbounds nuw %"class.tbb::detail::r1::threading_control_client", ptr %3, i32 0, i32 1
  %5 = load ptr, ptr %4, align 8, !tbaa !101
  ret ptr %5
}

; Function Attrs: mustprogress sspstrong uwtable
define void @_ZN3tbb6detail2r122threading_control_impl26prepare_client_destructionENS1_24threading_control_clientE(ptr dead_on_unwind noalias writable sret(%"struct.tbb::detail::r1::threading_control_impl::client_snapshot") align 8 %0, ptr noundef nonnull align 8 dereferenceable(40) %1, ptr %2, ptr %3) #0 align 2 {
  %5 = alloca %"class.tbb::detail::r1::threading_control_client", align 8
  %6 = alloca ptr, align 8
  %7 = alloca ptr, align 8
  %8 = getelementptr inbounds nuw { ptr, ptr }, ptr %5, i32 0, i32 0
  store ptr %2, ptr %8, align 8
  %9 = getelementptr inbounds nuw { ptr, ptr }, ptr %5, i32 0, i32 1
  store ptr %3, ptr %9, align 8
  store ptr %1, ptr %6, align 8, !tbaa !58
  call void @llvm.lifetime.start.p0(i64 8, ptr %7) #7
  %10 = call noundef ptr @_ZN3tbb6detail2r124threading_control_client28get_thread_dispatcher_clientEv(ptr noundef nonnull align 8 dereferenceable(16) %5)
  store ptr %10, ptr %7, align 8, !tbaa !96
  %11 = getelementptr inbounds nuw %"struct.tbb::detail::r1::threading_control_impl::client_snapshot", ptr %0, i32 0, i32 0
  %12 = load ptr, ptr %7, align 8, !tbaa !96
  %13 = call noundef i64 @_ZN3tbb6detail2r124thread_dispatcher_client13get_aba_epochEv(ptr noundef nonnull align 8 dereferenceable(32) %12)
  store i64 %13, ptr %11, align 8, !tbaa !102
  %14 = getelementptr inbounds nuw %"struct.tbb::detail::r1::threading_control_impl::client_snapshot", ptr %0, i32 0, i32 1
  %15 = load ptr, ptr %7, align 8, !tbaa !96
  %16 = call noundef i32 @_ZN3tbb6detail2r124thread_dispatcher_client14priority_levelEv(ptr noundef nonnull align 8 dereferenceable(32) %15)
  store i32 %16, ptr %14, align 8, !tbaa !104
  %17 = getelementptr inbounds nuw %"struct.tbb::detail::r1::threading_control_impl::client_snapshot", ptr %0, i32 0, i32 2
  %18 = load ptr, ptr %7, align 8, !tbaa !96
  store ptr %18, ptr %17, align 8, !tbaa !105
  %19 = getelementptr inbounds nuw %"struct.tbb::detail::r1::threading_control_impl::client_snapshot", ptr %0, i32 0, i32 3
  %20 = call noundef ptr @_ZN3tbb6detail2r124threading_control_client13get_pm_clientEv(ptr noundef nonnull align 8 dereferenceable(16) %5)
  store ptr %20, ptr %19, align 8, !tbaa !106
  call void @llvm.lifetime.end.p0(i64 8, ptr %7) #7
  ret void
}